target datalayout = "e-m:e-p270:32:32-p271:32:32-p272:64:64-i64:64-i128:128-f80:128-n8:16:32:64-S128"
target triple = "x86_64-pc-linux-gnu"

; Function Attrs: nounwind uwtable
define internal void @put_chroma_v_12(ptr noundef %0, ptr noundef %1, i64 noundef %2, i32 noundef %3, ptr noundef %4, ptr noundef %5, i32 noundef %6) #0 {
  %8 = alloca ptr, align 8
  %9 = alloca ptr, align 8
  %10 = alloca i64, align 8
  %11 = alloca i32, align 4
  %12 = alloca ptr, align 8
  %13 = alloca ptr, align 8
  %14 = alloca i32, align 4
  %15 = alloca ptr, align 8
  %16 = alloca i64, align 8
  %17 = alloca ptr, align 8
  %18 = alloca i32, align 4
  %19 = alloca i32, align 4
  %20 = alloca i32, align 4
  store ptr %0, ptr %8, align 8, !tbaa !142
  store ptr %1, ptr %9, align 8, !tbaa !144
  store i64 %2, ptr %10, align 8, !tbaa !146
  store i32 %3, ptr %11, align 4, !tbaa !9
  store ptr %4, ptr %12, align 8, !tbaa !144
  store ptr %5, ptr %13, align 8, !tbaa !144
  store i32 %6, ptr %14, align 4, !tbaa !9
  call void @llvm.lifetime.start.p0(i64 8, ptr %15) #8
  %21 = load ptr, ptr %9, align 8, !tbaa !144
  store ptr %21, ptr %15, align 8, !tbaa !142
  call void @llvm.lifetime.start.p0(i64 8, ptr %16) #8
  %22 = load i64, ptr %10, align 8, !tbaa !146
  %23 = udiv i64 %22, 2
  store i64 %23, ptr %16, align 8, !tbaa !146
  call void @llvm.lifetime.start.p0(i64 8, ptr %17) #8
  %24 = load ptr, ptr %13, align 8, !tbaa !144
  store ptr %24, ptr %17, align 8, !tbaa !144
  call void @llvm.lifetime.start.p0(i64 4, ptr %18) #8
  store i32 0, ptr %18, align 4, !tbaa !9
  br label %25

25:                                               ; preds = %106, %7
  %26 = load i32, ptr %18, align 4, !tbaa !9
  %27 = load i32, ptr %11, align 4, !tbaa !9
  %28 = icmp slt i32 %26, %27
  br i1 %28, label %30, label %29

29:                                               ; preds = %25
  store i32 2, ptr %19, align 4
  call void @llvm.lifetime.end.p0(i64 4, ptr %18) #8
  br label %109

30:                                               ; preds = %25
  call void @llvm.lifetime.start.p0(i64 4, ptr %20) #8
  store i32 0, ptr %20, align 4, !tbaa !9
  br label %31

31:                                               ; preds = %97, %30
  %32 = load i32, ptr %20, align 4, !tbaa !9
  %33 = load i32, ptr %14, align 4, !tbaa !9
  %34 = icmp slt i32 %32, %33
  br i1 %34, label %36, label %35

35:                                               ; preds = %31
  store i32 5, ptr %19, align 4
  call void @llvm.lifetime.end.p0(i64 4, ptr %20) #8
  br label %100

36:                                               ; preds = %31
  %37 = load ptr, ptr %17, align 8, !tbaa !144
  %38 = getelementptr inbounds i8, ptr %37, i64 0
  %39 = load i8, ptr %38, align 1, !tbaa !152
  %40 = sext i8 %39 to i32
  %41 = load ptr, ptr %15, align 8, !tbaa !142
  %42 = load i32, ptr %20, align 4, !tbaa !9
  %43 = sext i32 %42 to i64
  %44 = load i64, ptr %16, align 8, !tbaa !146
  %45 = sub nsw i64 %43, %44
  %46 = getelementptr inbounds i16, ptr %41, i64 %45
  %47 = load i16, ptr %46, align 2, !tbaa !148
  %48 = zext i16 %47 to i32
  %49 = mul nsw i32 %40, %48
  %50 = load ptr, ptr %17, align 8, !tbaa !144
  %51 = getelementptr inbounds i8, ptr %50, i64 1
  %52 = load i8, ptr %51, align 1, !tbaa !152
  %53 = sext i8 %52 to i32
  %54 = load ptr, ptr %15, align 8, !tbaa !142
  %55 = load i32, ptr %20, align 4, !tbaa !9
  %56 = sext i32 %55 to i64
  %57 = getelementptr inbounds i16, ptr %54, i64 %56
  %58 = load i16, ptr %57, align 2, !tbaa !148
  %59 = zext i16 %58 to i32
  %60 = mul nsw i32 %53, %59
  %61 = add nsw i32 %49, %60
  %62 = load ptr, ptr %17, align 8, !tbaa !144
  %63 = getelementptr inbounds i8, ptr %62, i64 2
  %64 = load i8, ptr %63, align 1, !tbaa !152
  %65 = sext i8 %64 to i32
  %66 = load ptr, ptr %15, align 8, !tbaa !142
  %67 = load i32, ptr %20, align 4, !tbaa !9
  %68 = sext i32 %67 to i64
  %69 = load i64, ptr %16, align 8, !tbaa !146
  %70 = add nsw i64 %68, %69
  %71 = getelementptr inbounds i16, ptr %66, i64 %70
  %72 = load i16, ptr %71, align 2, !tbaa !148
  %73 = zext i16 %72 to i32
  %74 = mul nsw i32 %65, %73
  %75 = add nsw i32 %61, %74
  %76 = load ptr, ptr %17, align 8, !tbaa !144
  %77 = getelementptr inbounds i8, ptr %76, i64 3
  %78 = load i8, ptr %77, align 1, !tbaa !152
  %79 = sext i8 %78 to i32
  %80 = load ptr, ptr %15, align 8, !tbaa !142
  %81 = load i32, ptr %20, align 4, !tbaa !9
  %82 = sext i32 %81 to i64
  %83 = load i64, ptr %16, align 8, !tbaa !146
  %84 = mul nsw i64 2, %83
  %85 = add nsw i64 %82, %84
  %86 = getelementptr inbounds i16, ptr %80, i64 %85
  %87 = load i16, ptr %86, align 2, !tbaa !148
  %88 = zext i16 %87 to i32
  %89 = mul nsw i32 %79, %88
  %90 = add nsw i32 %75, %89
  %91 = ashr i32 %90, 4
  %92 = trunc i32 %91 to i16
  %93 = load ptr, ptr %8, align 8, !tbaa !142
  %94 = load i32, ptr %20, align 4, !tbaa !9
  %95 = sext i32 %94 to i64
  %96 = getelementptr inbounds i16, ptr %93, i64 %95
  store i16 %92, ptr %96, align 2, !tbaa !148
  br label %97

97:                                               ; preds = %36
  %98 = load i32, ptr %20, align 4, !tbaa !9
  %99 = add nsw i32 %98, 1
  store i32 %99, ptr %20, align 4, !tbaa !9
  br label %31, !llvm.loop !182

100:                                              ; preds = %35
  %101 = load i64, ptr %16, align 8, !tbaa !146
  %102 = load ptr, ptr %15, align 8, !tbaa !142
  %103 = getelementptr inbounds i16, ptr %102, i64 %101
  store ptr %103, ptr %15, align 8, !tbaa !142
  %104 = load ptr, ptr %8, align 8, !tbaa !142
  %105 = getelementptr inbounds i16, ptr %104, i64 128
  store ptr %105, ptr %8, align 8, !tbaa !142
  br label %106

106:                                              ; preds = %100
  %107 = load i32, ptr %18, align 4, !tbaa !9
  %108 = add nsw i32 %107, 1
  store i32 %108, ptr %18, align 4, !tbaa !9
  br label %25, !llvm.loop !183

109:                                              ; preds = %29
  call void @llvm.lifetime.end.p0(i64 8, ptr %17) #8
  call void @llvm.lifetime.end.p0(i64 8, ptr %16) #8
  call void @llvm.lifetime.end.p0(i64 8, ptr %15) #8
  ret void
}