; Function Attrs: nofree norecurse nosync nounwind memory(argmem: readwrite) uwtable
define internal void @put_chroma_v_12(ptr noundef writeonly captures(none) %0, ptr noundef readonly captures(none) %1, i64 noundef %2, i32 noundef %3, ptr readnone captures(none) %4, ptr noundef readonly captures(none) %5, i32 noundef %6) #2 {
  %8 = lshr i64 %2, 1
  %9 = icmp sgt i32 %3, 0
  br i1 %9, label %.preheader.lr.ph, label %._crit_edge35

.preheader.lr.ph:                                 ; preds = %7
  %10 = icmp sgt i32 %6, 0
  %11 = getelementptr inbounds nuw i8, ptr %5, i64 1
  %12 = getelementptr inbounds nuw i8, ptr %5, i64 2
  %13 = getelementptr inbounds nuw i8, ptr %5, i64 3
  %14 = and i64 %2, -2
  br i1 %10, label %.preheader.us.preheader, label %._crit_edge35

.preheader.us.preheader:                          ; preds = %.preheader.lr.ph
  %wide.trip.count = zext nneg i32 %6 to i64
  br label %.preheader.us

.preheader.us:                                    ; preds = %.preheader.us.preheader, %._crit_edge.us
  %.02834.us = phi i32 [ %50, %._crit_edge.us ], [ 0, %.preheader.us.preheader ]
  %.02933.us = phi ptr [ %49, %._crit_edge.us ], [ %0, %.preheader.us.preheader ]
  %.03032.us = phi ptr [ %15, %._crit_edge.us ], [ %1, %.preheader.us.preheader ]
  %15 = getelementptr inbounds nuw i16, ptr %.03032.us, i64 %8
  %16 = getelementptr i16, ptr %.03032.us, i64 %14
  br label %17

17:                                               ; preds = %.preheader.us, %17
  %indvars.iv = phi i64 [ 0, %.preheader.us ], [ %indvars.iv.next, %17 ]
  %18 = load i8, ptr %5, align 1, !tbaa !128
  %19 = sext i8 %18 to i32
  %20 = sub nsw i64 %indvars.iv, %8
  %21 = getelementptr inbounds i16, ptr %.03032.us, i64 %20
  %22 = load i16, ptr %21, align 2, !tbaa !124
  %23 = zext i16 %22 to i32
  %24 = mul nsw i32 %23, %19
  %25 = load i8, ptr %11, align 1, !tbaa !128
  %26 = sext i8 %25 to i32
  %27 = getelementptr inbounds nuw i16, ptr %.03032.us, i64 %indvars.iv
  %28 = load i16, ptr %27, align 2, !tbaa !124
  %29 = zext i16 %28 to i32
  %30 = mul nsw i32 %29, %26
  %31 = add nsw i32 %30, %24
  %32 = load i8, ptr %12, align 1, !tbaa !128
  %33 = sext i8 %32 to i32
  %34 = getelementptr inbounds nuw i16, ptr %15, i64 %indvars.iv
  %35 = load i16, ptr %34, align 2, !tbaa !124
  %36 = zext i16 %35 to i32
  %37 = mul nsw i32 %36, %33
  %38 = add nsw i32 %31, %37
  %39 = load i8, ptr %13, align 1, !tbaa !128
  %40 = sext i8 %39 to i32
  %41 = getelementptr i16, ptr %16, i64 %indvars.iv
  %42 = load i16, ptr %41, align 2, !tbaa !124
  %43 = zext i16 %42 to i32
  %44 = mul nsw i32 %43, %40
  %45 = add nsw i32 %38, %44
  %46 = lshr i32 %45, 4
  %47 = trunc i32 %46 to i16
  %48 = getelementptr inbounds nuw i16, ptr %.02933.us, i64 %indvars.iv
  store i16 %47, ptr %48, align 2, !tbaa !124
  %indvars.iv.next = add nuw nsw i64 %indvars.iv, 1
  %exitcond.not = icmp eq i64 %indvars.iv.next, %wide.trip.count
  br i1 %exitcond.not, label %._crit_edge.us, label %17, !llvm.loop !158

._crit_edge.us:                                   ; preds = %17
  %49 = getelementptr inbounds nuw i8, ptr %.02933.us, i64 256
  %50 = add nuw nsw i32 %.02834.us, 1
  %exitcond38.not = icmp eq i32 %50, %3
  br i1 %exitcond38.not, label %._crit_edge35, label %.preheader.us, !llvm.loop !159

._crit_edge35:                                    ; preds = %._crit_edge.us, %.preheader.lr.ph, %7
  ret void
}